target datalayout = "e-m:e-p270:32:32-p271:32:32-p272:64:64-i64:64-i128:128-f80:128-n8:16:32:64-S128"
target triple = "x86_64-pc-linux-gnu"

%"struct.Yosys::RTLIL::IdString" = type { i32 }
%"class.std::vector.8" = type { %"struct.std::_Vector_base.9" }
%"struct.std::_Vector_base.9" = type { %"struct.std::_Vector_base<int, std::allocator<int>>::_Vector_impl" }
%"struct.std::_Vector_base<int, std::allocator<int>>::_Vector_impl" = type { %"struct.std::_Vector_base<int, std::allocator<int>>::_Vector_impl_data" }
%"struct.std::_Vector_base<int, std::allocator<int>>::_Vector_impl_data" = type { ptr, ptr, ptr }
%"struct.Yosys::RTLIL::SigBit" = type <{ ptr, %union.anon.138, [4 x i8] }>
%union.anon.138 = type { i32 }
%"struct.(anonymous namespace)::StaWorker::t_data" = type { ptr, %"struct.Yosys::RTLIL::IdString", %"struct.Yosys::RTLIL::IdString", %"class.std::vector.199", %"struct.Yosys::RTLIL::SigBit" }
%"class.std::vector.199" = type { %"struct.std::_Vector_base.200" }
%"struct.std::_Vector_base.200" = type { %"struct.std::_Vector_base<std::tuple<Yosys::RTLIL::SigBit, int, Yosys::RTLIL::IdString>, std::allocator<std::tuple<Yosys::RTLIL::SigBit, int, Yosys::RTLIL::IdString>>>::_Vector_impl" }
%"struct.std::_Vector_base<std::tuple<Yosys::RTLIL::SigBit, int, Yosys::RTLIL::IdString>, std::allocator<std::tuple<Yosys::RTLIL::SigBit, int, Yosys::RTLIL::IdString>>>::_Vector_impl" = type { %"struct.std::_Vector_base<std::tuple<Yosys::RTLIL::SigBit, int, Yosys::RTLIL::IdString>, std::allocator<std::tuple<Yosys::RTLIL::SigBit, int, Yosys::RTLIL::IdString>>>::_Vector_impl_data" }
%"struct.std::_Vector_base<std::tuple<Yosys::RTLIL::SigBit, int, Yosys::RTLIL::IdString>, std::allocator<std::tuple<Yosys::RTLIL::SigBit, int, Yosys::RTLIL::IdString>>>::_Vector_impl_data" = type { ptr, ptr, ptr }
%"class.std::tuple.207" = type { %"struct.std::_Tuple_impl.208" }
%"struct.std::_Tuple_impl.208" = type { %"struct.std::_Tuple_impl.209", %"struct.std::_Head_base.213" }
%"struct.std::_Tuple_impl.209" = type { %"struct.std::_Tuple_impl.210", %"struct.std::_Head_base.212" }
%"struct.std::_Tuple_impl.210" = type { %"struct.std::_Head_base.211" }
%"struct.std::_Head_base.211" = type { %"struct.Yosys::RTLIL::IdString" }
%"struct.std::_Head_base.212" = type { i32 }
%"struct.std::_Head_base.213" = type { %"struct.Yosys::RTLIL::SigBit" }

@_ZN5Yosys5RTLIL8IdString24global_refcount_storage_E = external global %"class.std::vector.8", align 8
@_ZN5Yosys5RTLIL8IdString17destruct_guard_okE = external global i8, align 1

; Function Attrs: inlinehint mustprogress nounwind uwtable
define linkonce_odr void @_ZNSt10_Head_baseILm2EN5Yosys5RTLIL8IdStringELb0EED2Ev(ptr noundef nonnull align 4 dereferenceable(4) %0) unnamed_addr #7 comdat align 2 {
  %2 = alloca ptr, align 8
  store ptr %0, ptr %2, align 8, !tbaa !1000
  %3 = load ptr, ptr %2, align 8
  %4 = getelementptr inbounds nuw %"struct.std::_Head_base.211", ptr %3, i32 0, i32 0
  call void @_ZN5Yosys5RTLIL8IdStringD2Ev(ptr noundef nonnull align 4 dereferenceable(4) %4) #3
  ret void
}

; Function Attrs: mustprogress nounwind uwtable
define linkonce_odr void @_ZNSt15__new_allocatorISt5tupleIJN5Yosys5RTLIL6SigBitEiNS2_8IdStringEEEE10deallocateEPS5_m(ptr noundef nonnull align 1 dereferenceable(1) %0, ptr noundef %1, i64 noundef %2) #6 comdat align 2 {
  %4 = alloca ptr, align 8
  %5 = alloca ptr, align 8
  %6 = alloca i64, align 8
  store ptr %0, ptr %4, align 8, !tbaa !977
  store ptr %1, ptr %5, align 8, !tbaa !251
  store i64 %2, ptr %6, align 8, !tbaa !35
  %7 = load ptr, ptr %5, align 8, !tbaa !251
  %8 = load i64, ptr %6, align 8, !tbaa !35
  %9 = mul i64 %8, 24
  call void @_ZdlPvm(ptr noundef %7, i64 noundef %9) #21
  ret void
}

; Function Attrs: inlinehint mustprogress nounwind uwtable
define linkonce_odr void @_ZSt8_DestroyISt5tupleIJN5Yosys5RTLIL6SigBitEiNS2_8IdStringEEEEvPT_(ptr noundef %0) #7 comdat {
  %2 = alloca ptr, align 8
  store ptr %0, ptr %2, align 8, !tbaa !251
  %3 = load ptr, ptr %2, align 8, !tbaa !251
  call void @_ZNSt10_Head_baseILm2EN5Yosys5RTLIL8IdStringELb0EED2Ev(ptr noundef nonnull align 8 dereferenceable(24) %3) #3
  ret void
}

; Function Attrs: mustprogress uwtable
define linkonce_odr void @_ZNSt16allocator_traitsISaISt5tupleIJN5Yosys5RTLIL6SigBitEiNS2_8IdStringEEEEE10deallocateERS6_PS5_m(ptr noundef nonnull align 1 dereferenceable(1) %0, ptr noundef %1, i64 noundef %2) #4 comdat align 2 {
  %4 = alloca ptr, align 8
  %5 = alloca ptr, align 8
  %6 = alloca i64, align 8
  store ptr %0, ptr %4, align 8, !tbaa !986
  store ptr %1, ptr %5, align 8, !tbaa !251
  store i64 %2, ptr %6, align 8, !tbaa !35
  %7 = load ptr, ptr %4, align 8, !tbaa !986
  %8 = load ptr, ptr %5, align 8, !tbaa !251
  %9 = load i64, ptr %6, align 8, !tbaa !35
  call void @_ZNSt15__new_allocatorISt5tupleIJN5Yosys5RTLIL6SigBitEiNS2_8IdStringEEEE10deallocateEPS5_m(ptr noundef nonnull align 1 dereferenceable(1) %7, ptr noundef %8, i64 noundef %9)
  ret void
}

; Function Attrs: mustprogress uwtable
define linkonce_odr void @_ZNSt12_Destroy_auxILb0EE9__destroyIPSt5tupleIJN5Yosys5RTLIL6SigBitEiNS4_8IdStringEEEEEvT_S9_(ptr noundef %0, ptr noundef %1) #4 comdat align 2 {
  %3 = alloca ptr, align 8
  %4 = alloca ptr, align 8
  store ptr %0, ptr %3, align 8, !tbaa !251
  store ptr %1, ptr %4, align 8, !tbaa !251
  br label %5

5:                                                ; preds = %11, %2
  %6 = load ptr, ptr %3, align 8, !tbaa !251
  %7 = load ptr, ptr %4, align 8, !tbaa !251
  %8 = icmp ne ptr %6, %7
  br i1 %8, label %9, label %14

9:                                                ; preds = %5
  %10 = load ptr, ptr %3, align 8, !tbaa !251
  call void @_ZSt8_DestroyISt5tupleIJN5Yosys5RTLIL6SigBitEiNS2_8IdStringEEEEvPT_(ptr noundef %10)
  br label %11

11:                                               ; preds = %9
  %12 = load ptr, ptr %3, align 8, !tbaa !251
  %13 = getelementptr inbounds nuw %"class.std::tuple.207", ptr %12, i32 1
  store ptr %13, ptr %3, align 8, !tbaa !251
  br label %5, !llvm.loop !1002

14:                                               ; preds = %5
  ret void
}

; Function Attrs: mustprogress nounwind uwtable
define linkonce_odr noundef nonnull align 4 dereferenceable(4) ptr @_ZNSt6vectorIiSaIiEEixEm(ptr noundef nonnull align 8 dereferenceable(24) %0, i64 noundef %1) #6 comdat align 2 {
  %3 = alloca ptr, align 8
  %4 = alloca i64, align 8
  store ptr %0, ptr %3, align 8, !tbaa !247
  store i64 %1, ptr %4, align 8, !tbaa !35
  %5 = load ptr, ptr %3, align 8
  %6 = getelementptr inbounds nuw %"struct.std::_Vector_base.9", ptr %5, i32 0, i32 0
  %7 = getelementptr inbounds nuw %"struct.std::_Vector_base<int, std::allocator<int>>::_Vector_impl_data", ptr %6, i32 0, i32 0
  %8 = load ptr, ptr %7, align 8, !tbaa !408
  %9 = load i64, ptr %4, align 8, !tbaa !35
  %10 = getelementptr inbounds nuw i32, ptr %8, i64 %9
  ret ptr %10
}

; Function Attrs: mustprogress nounwind uwtable
define linkonce_odr void @_ZNSt15__new_allocatorISt5tupleIJN5Yosys5RTLIL6SigBitEiNS2_8IdStringEEEED2Ev(ptr noundef nonnull align 1 dereferenceable(1) %0) unnamed_addr #6 comdat align 2 {
  %2 = alloca ptr, align 8
  store ptr %0, ptr %2, align 8, !tbaa !977
  ret void
}

; Function Attrs: mustprogress uwtable
define linkonce_odr void @_ZNSt12_Vector_baseISt5tupleIJN5Yosys5RTLIL6SigBitEiNS2_8IdStringEEESaIS5_EE13_M_deallocateEPS5_m(ptr noundef nonnull align 8 dereferenceable(24) %0, ptr noundef %1, i64 noundef %2) #4 comdat align 2 {
  %4 = alloca ptr, align 8
  %5 = alloca ptr, align 8
  %6 = alloca i64, align 8
  store ptr %0, ptr %4, align 8, !tbaa !970
  store ptr %1, ptr %5, align 8, !tbaa !251
  store i64 %2, ptr %6, align 8, !tbaa !35
  %7 = load ptr, ptr %4, align 8
  %8 = load ptr, ptr %5, align 8, !tbaa !251
  %9 = icmp ne ptr %8, null
  br i1 %9, label %10, label %14

10:                                               ; preds = %3
  %11 = getelementptr inbounds nuw %"struct.std::_Vector_base.200", ptr %7, i32 0, i32 0
  %12 = load ptr, ptr %5, align 8, !tbaa !251
  %13 = load i64, ptr %6, align 8, !tbaa !35
  call void @_ZNSt16allocator_traitsISaISt5tupleIJN5Yosys5RTLIL6SigBitEiNS2_8IdStringEEEEE10deallocateERS6_PS5_m(ptr noundef nonnull align 1 dereferenceable(1) %11, ptr noundef %12, i64 noundef %13)
  br label %14

14:                                               ; preds = %10, %3
  ret void
}

; Function Attrs: inlinehint mustprogress uwtable
define linkonce_odr void @_ZSt8_DestroyIPSt5tupleIJN5Yosys5RTLIL6SigBitEiNS2_8IdStringEEEEvT_S7_(ptr noundef %0, ptr noundef %1) #9 comdat {
  %3 = alloca ptr, align 8
  %4 = alloca ptr, align 8
  store ptr %0, ptr %3, align 8, !tbaa !251
  store ptr %1, ptr %4, align 8, !tbaa !251
  %5 = load ptr, ptr %3, align 8, !tbaa !251
  %6 = load ptr, ptr %4, align 8, !tbaa !251
  call void @_ZNSt12_Destroy_auxILb0EE9__destroyIPSt5tupleIJN5Yosys5RTLIL6SigBitEiNS4_8IdStringEEEEEvT_S9_(ptr noundef %5, ptr noundef %6)
  ret void
}

; Function Attrs: inlinehint mustprogress uwtable
define linkonce_odr void @_ZN5Yosys5RTLIL8IdString13put_referenceEi(i32 noundef %0) #9 comdat align 2 {
  %2 = alloca i32, align 4
  %3 = alloca ptr, align 8
  %4 = alloca i32, align 4
  store i32 %0, ptr %2, align 4, !tbaa !204
  %5 = load i8, ptr @_ZN5Yosys5RTLIL8IdString17destruct_guard_okE, align 1, !tbaa !286, !range !180, !noundef !181
  %6 = trunc i8 %5 to i1
  br i1 %6, label %7, label %10

7:                                                ; preds = %1
  %8 = load i32, ptr %2, align 4, !tbaa !204
  %9 = icmp ne i32 %8, 0
  br i1 %9, label %11, label %10

10:                                               ; preds = %7, %1
  br label %27

11:                                               ; preds = %7
  call void @llvm.lifetime.start.p0(i64 8, ptr %3) #3
  %12 = load i32, ptr %2, align 4, !tbaa !204
  %13 = sext i32 %12 to i64
  %14 = call noundef nonnull align 4 dereferenceable(4) ptr @_ZNSt6vectorIiSaIiEEixEm(ptr noundef nonnull align 8 dereferenceable(24) @_ZN5Yosys5RTLIL8IdString24global_refcount_storage_E, i64 noundef %13) #3
  store ptr %14, ptr %3, align 8, !tbaa !252
  %15 = load ptr, ptr %3, align 8, !tbaa !252
  %16 = load i32, ptr %15, align 4, !tbaa !204
  %17 = add nsw i32 %16, -1
  store i32 %17, ptr %15, align 4, !tbaa !204
  %18 = icmp sgt i32 %17, 0
  br i1 %18, label %19, label %20

19:                                               ; preds = %11
  store i32 1, ptr %4, align 4
  br label %25

20:                                               ; preds = %11
  br label %21

21:                                               ; preds = %20
  br label %22

22:                                               ; preds = %21
  br label %23

23:                                               ; preds = %22
  %24 = load i32, ptr %2, align 4, !tbaa !204
  call void @_ZN5Yosys5RTLIL8IdString14free_referenceEi(i32 noundef %24)
  store i32 0, ptr %4, align 4
  br label %25

25:                                               ; preds = %23, %19
  call void @llvm.lifetime.end.p0(i64 8, ptr %3) #3
  %26 = load i32, ptr %4, align 4
  switch i32 %26, label %28 [
    i32 0, label %27
    i32 1, label %27
  ]

27:                                               ; preds = %10, %25, %25
  ret void

28:                                               ; preds = %25
  unreachable
}

; Function Attrs: mustprogress nounwind uwtable
define linkonce_odr void @_ZNSt12_Vector_baseISt5tupleIJN5Yosys5RTLIL6SigBitEiNS2_8IdStringEEESaIS5_EED2Ev(ptr noundef nonnull align 8 dereferenceable(24) %0) unnamed_addr #6 comdat align 2 personality ptr @__gxx_personality_v0 {
  %2 = alloca ptr, align 8
  store ptr %0, ptr %2, align 8, !tbaa !970
  %3 = load ptr, ptr %2, align 8
  %4 = getelementptr inbounds nuw %"struct.std::_Vector_base.200", ptr %3, i32 0, i32 0
  %5 = getelementptr inbounds nuw %"struct.std::_Vector_base<std::tuple<Yosys::RTLIL::SigBit, int, Yosys::RTLIL::IdString>, std::allocator<std::tuple<Yosys::RTLIL::SigBit, int, Yosys::RTLIL::IdString>>>::_Vector_impl_data", ptr %4, i32 0, i32 0
  %6 = load ptr, ptr %5, align 8, !tbaa !976
  %7 = getelementptr inbounds nuw %"struct.std::_Vector_base.200", ptr %3, i32 0, i32 0
  %8 = getelementptr inbounds nuw %"struct.std::_Vector_base<std::tuple<Yosys::RTLIL::SigBit, int, Yosys::RTLIL::IdString>, std::allocator<std::tuple<Yosys::RTLIL::SigBit, int, Yosys::RTLIL::IdString>>>::_Vector_impl_data", ptr %7, i32 0, i32 2
  %9 = load ptr, ptr %8, align 8, !tbaa !366
  %10 = getelementptr inbounds nuw %"struct.std::_Vector_base.200", ptr %3, i32 0, i32 0
  %11 = getelementptr inbounds nuw %"struct.std::_Vector_base<std::tuple<Yosys::RTLIL::SigBit, int, Yosys::RTLIL::IdString>, std::allocator<std::tuple<Yosys::RTLIL::SigBit, int, Yosys::RTLIL::IdString>>>::_Vector_impl_data", ptr %10, i32 0, i32 0
  %12 = load ptr, ptr %11, align 8, !tbaa !976
  %13 = ptrtoint ptr %9 to i64
  %14 = ptrtoint ptr %12 to i64
  %15 = sub i64 %13, %14
  %16 = sdiv exact i64 %15, 24
  invoke void @_ZNSt12_Vector_baseISt5tupleIJN5Yosys5RTLIL6SigBitEiNS2_8IdStringEEESaIS5_EE13_M_deallocateEPS5_m(ptr noundef nonnull align 8 dereferenceable(24) %3, ptr noundef %6, i64 noundef %16)
          to label %17 unwind label %19

17:                                               ; preds = %1
  %18 = getelementptr inbounds nuw %"struct.std::_Vector_base.200", ptr %3, i32 0, i32 0
  call void @_ZNSt15__new_allocatorISt5tupleIJN5Yosys5RTLIL6SigBitEiNS2_8IdStringEEEED2Ev(ptr noundef nonnull align 8 dereferenceable(24) %18) #3
  ret void

19:                                               ; preds = %1
  %20 = landingpad { ptr, i32 }
          catch ptr null
  %21 = extractvalue { ptr, i32 } %20, 0
  call void @__clang_call_terminate(ptr %21) #20
  unreachable
}

; Function Attrs: inlinehint mustprogress uwtable
define linkonce_odr void @_ZSt8_DestroyIPSt5tupleIJN5Yosys5RTLIL6SigBitEiNS2_8IdStringEEES5_EvT_S7_RSaIT0_E(ptr noundef %0, ptr noundef %1, ptr noundef nonnull align 1 dereferenceable(1) %2) #9 comdat {
  %4 = alloca ptr, align 8
  %5 = alloca ptr, align 8
  %6 = alloca ptr, align 8
  store ptr %0, ptr %4, align 8, !tbaa !251
  store ptr %1, ptr %5, align 8, !tbaa !251
  store ptr %2, ptr %6, align 8, !tbaa !986
  %7 = load ptr, ptr %4, align 8, !tbaa !251
  %8 = load ptr, ptr %5, align 8, !tbaa !251
  call void @_ZSt8_DestroyIPSt5tupleIJN5Yosys5RTLIL6SigBitEiNS2_8IdStringEEEEvT_S7_(ptr noundef %7, ptr noundef %8)
  ret void
}

; Function Attrs: mustprogress nounwind uwtable
define linkonce_odr noundef nonnull align 1 dereferenceable(1) ptr @_ZNSt12_Vector_baseISt5tupleIJN5Yosys5RTLIL6SigBitEiNS2_8IdStringEEESaIS5_EE19_M_get_Tp_allocatorEv(ptr noundef nonnull align 8 dereferenceable(24) %0) #6 comdat align 2 {
  %2 = alloca ptr, align 8
  store ptr %0, ptr %2, align 8, !tbaa !970
  %3 = load ptr, ptr %2, align 8
  %4 = getelementptr inbounds nuw %"struct.std::_Vector_base.200", ptr %3, i32 0, i32 0
  ret ptr %4
}

; Function Attrs: inlinehint mustprogress nounwind uwtable
define linkonce_odr void @_ZN5Yosys5RTLIL8IdStringD2Ev(ptr noundef nonnull align 4 dereferenceable(4) %0) unnamed_addr #7 comdat align 2 personality ptr @__gxx_personality_v0 {
  %2 = alloca ptr, align 8
  store ptr %0, ptr %2, align 8, !tbaa !322
  %3 = load ptr, ptr %2, align 8
  %4 = getelementptr inbounds nuw %"struct.Yosys::RTLIL::IdString", ptr %3, i32 0, i32 0
  %5 = load i32, ptr %4, align 4, !tbaa !323
  invoke void @_ZN5Yosys5RTLIL8IdString13put_referenceEi(i32 noundef %5)
          to label %6 unwind label %7

6:                                                ; preds = %1
  ret void

7:                                                ; preds = %1
  %8 = landingpad { ptr, i32 }
          catch ptr null
  %9 = extractvalue { ptr, i32 } %8, 0
  call void @__clang_call_terminate(ptr %9) #20
  unreachable
}

; Function Attrs: mustprogress nounwind uwtable
define linkonce_odr void @_ZNSt6vectorISt5tupleIJN5Yosys5RTLIL6SigBitEiNS2_8IdStringEEESaIS5_EED2Ev(ptr noundef nonnull align 8 dereferenceable(24) %0) unnamed_addr #6 comdat align 2 personality ptr @__gxx_personality_v0 {
  %2 = alloca ptr, align 8
  store ptr %0, ptr %2, align 8, !tbaa !249
  %3 = load ptr, ptr %2, align 8
  %4 = getelementptr inbounds nuw %"struct.std::_Vector_base.200", ptr %3, i32 0, i32 0
  %5 = getelementptr inbounds nuw %"struct.std::_Vector_base<std::tuple<Yosys::RTLIL::SigBit, int, Yosys::RTLIL::IdString>, std::allocator<std::tuple<Yosys::RTLIL::SigBit, int, Yosys::RTLIL::IdString>>>::_Vector_impl_data", ptr %4, i32 0, i32 0
  %6 = load ptr, ptr %5, align 8, !tbaa !976
  %7 = getelementptr inbounds nuw %"struct.std::_Vector_base.200", ptr %3, i32 0, i32 0
  %8 = getelementptr inbounds nuw %"struct.std::_Vector_base<std::tuple<Yosys::RTLIL::SigBit, int, Yosys::RTLIL::IdString>, std::allocator<std::tuple<Yosys::RTLIL::SigBit, int, Yosys::RTLIL::IdString>>>::_Vector_impl_data", ptr %7, i32 0, i32 1
  %9 = load ptr, ptr %8, align 8, !tbaa !365
  %10 = call noundef nonnull align 1 dereferenceable(1) ptr @_ZNSt12_Vector_baseISt5tupleIJN5Yosys5RTLIL6SigBitEiNS2_8IdStringEEESaIS5_EE19_M_get_Tp_allocatorEv(ptr noundef nonnull align 8 dereferenceable(24) %3) #3
  invoke void @_ZSt8_DestroyIPSt5tupleIJN5Yosys5RTLIL6SigBitEiNS2_8IdStringEEES5_EvT_S7_RSaIT0_E(ptr noundef %6, ptr noundef %9, ptr noundef nonnull align 1 dereferenceable(1) %10)
          to label %11 unwind label %12

11:                                               ; preds = %1
  call void @_ZNSt12_Vector_baseISt5tupleIJN5Yosys5RTLIL6SigBitEiNS2_8IdStringEEESaIS5_EED2Ev(ptr noundef nonnull align 8 dereferenceable(24) %3) #3
  ret void

12:                                               ; preds = %1
  %13 = landingpad { ptr, i32 }
          catch ptr null
  %14 = extractvalue { ptr, i32 } %13, 0
  call void @__clang_call_terminate(ptr %14) #20
  unreachable
}

; Function Attrs: inlinehint mustprogress nounwind uwtable
define internal void @_ZN12_GLOBAL__N_19StaWorker6t_dataD2Ev(ptr noundef nonnull align 8 dereferenceable(56) %0) unnamed_addr #7 align 2 {
  %2 = alloca ptr, align 8
  store ptr %0, ptr %2, align 8, !tbaa !219
  %3 = load ptr, ptr %2, align 8
  %4 = getelementptr inbounds nuw %"struct.(anonymous namespace)::StaWorker::t_data", ptr %3, i32 0, i32 3
  call void @_ZNSt6vectorISt5tupleIJN5Yosys5RTLIL6SigBitEiNS2_8IdStringEEESaIS5_EED2Ev(ptr noundef nonnull align 8 dereferenceable(24) %4) #3
  %5 = getelementptr inbounds nuw %"struct.(anonymous namespace)::StaWorker::t_data", ptr %3, i32 0, i32 2
  call void @_ZN5Yosys5RTLIL8IdStringD2Ev(ptr noundef nonnull align 4 dereferenceable(4) %5) #3
  %6 = getelementptr inbounds nuw %"struct.(anonymous namespace)::StaWorker::t_data", ptr %3, i32 0, i32 1
  call void @_ZN5Yosys5RTLIL8IdStringD2Ev(ptr noundef nonnull align 4 dereferenceable(4) %6) #3
  ret void
}