; Function Attrs: inlinehint mustprogress nounwind uwtable
define internal fastcc void @_ZN12_GLOBAL__N_19StaWorker6t_dataD2Ev(ptr noundef nonnull readonly align 8 captures(none) dereferenceable(56) %0) unnamed_addr #4 align 2 personality ptr @__gxx_personality_v0 {
  %2 = getelementptr inbounds nuw i8, ptr %0, i64 16
  %3 = load ptr, ptr %2, align 8, !tbaa !517
  %4 = getelementptr inbounds nuw i8, ptr %0, i64 24
  %5 = load ptr, ptr %4, align 8, !tbaa !349
  %.not4.i.i.i.i = icmp eq ptr %3, %5
  br i1 %.not4.i.i.i.i, label %_ZSt8_DestroyIPSt5tupleIJN5Yosys5RTLIL6SigBitEiNS2_8IdStringEEES5_EvT_S7_RSaIT0_E.exit.i, label %.lr.ph.i.i.i.i

.lr.ph.i.i.i.i:                                   ; preds = %1, %_ZSt8_DestroyISt5tupleIJN5Yosys5RTLIL6SigBitEiNS2_8IdStringEEEEvPT_.exit.i.i.i.i
  %.05.i.i.i.i = phi ptr [ %21, %_ZSt8_DestroyISt5tupleIJN5Yosys5RTLIL6SigBitEiNS2_8IdStringEEEEvPT_.exit.i.i.i.i ], [ %3, %1 ]
  %6 = load i32, ptr %.05.i.i.i.i, align 4, !tbaa !102
  %7 = load i8, ptr @_ZN5Yosys5RTLIL8IdString17destruct_guard_okE, align 1, !tbaa !103, !range !104, !noundef !105
  %8 = trunc nuw i8 %7 to i1
  %9 = icmp ne i32 %6, 0
  %or.cond.i.i.i.i.i.i.i.i = and i1 %9, %8
  br i1 %or.cond.i.i.i.i.i.i.i.i, label %10, label %_ZSt8_DestroyISt5tupleIJN5Yosys5RTLIL6SigBitEiNS2_8IdStringEEEEvPT_.exit.i.i.i.i

10:                                               ; preds = %.lr.ph.i.i.i.i
  %11 = sext i32 %6 to i64
  %12 = load ptr, ptr @_ZN5Yosys5RTLIL8IdString24global_refcount_storage_E, align 8, !tbaa !79
  %13 = getelementptr inbounds nuw i32, ptr %12, i64 %11
  %14 = load i32, ptr %13, align 4, !tbaa !78
  %15 = add nsw i32 %14, -1
  store i32 %15, ptr %13, align 4, !tbaa !78
  %16 = icmp sgt i32 %14, 1
  br i1 %16, label %_ZSt8_DestroyISt5tupleIJN5Yosys5RTLIL6SigBitEiNS2_8IdStringEEEEvPT_.exit.i.i.i.i, label %17

17:                                               ; preds = %10
  invoke void @_ZN5Yosys5RTLIL8IdString14free_referenceEi(i32 noundef %6)
          to label %_ZSt8_DestroyISt5tupleIJN5Yosys5RTLIL6SigBitEiNS2_8IdStringEEEEvPT_.exit.i.i.i.i unwind label %18

18:                                               ; preds = %17
  %19 = landingpad { ptr, i32 }
          catch ptr null
  %20 = extractvalue { ptr, i32 } %19, 0
  tail call void @__clang_call_terminate(ptr %20) #28
  unreachable

_ZSt8_DestroyISt5tupleIJN5Yosys5RTLIL6SigBitEiNS2_8IdStringEEEEvPT_.exit.i.i.i.i: ; preds = %17, %10, %.lr.ph.i.i.i.i
  %21 = getelementptr inbounds nuw i8, ptr %.05.i.i.i.i, i64 24
  %.not.i.i.i.i = icmp eq ptr %21, %5
  br i1 %.not.i.i.i.i, label %_ZSt8_DestroyIPSt5tupleIJN5Yosys5RTLIL6SigBitEiNS2_8IdStringEEES5_EvT_S7_RSaIT0_E.exitthread-pre-split.i, label %.lr.ph.i.i.i.i, !llvm.loop !518

_ZSt8_DestroyIPSt5tupleIJN5Yosys5RTLIL6SigBitEiNS2_8IdStringEEES5_EvT_S7_RSaIT0_E.exitthread-pre-split.i: ; preds = %_ZSt8_DestroyISt5tupleIJN5Yosys5RTLIL6SigBitEiNS2_8IdStringEEEEvPT_.exit.i.i.i.i
  %.pr.i = load ptr, ptr %2, align 8, !tbaa !517
  br label %_ZSt8_DestroyIPSt5tupleIJN5Yosys5RTLIL6SigBitEiNS2_8IdStringEEES5_EvT_S7_RSaIT0_E.exit.i

_ZSt8_DestroyIPSt5tupleIJN5Yosys5RTLIL6SigBitEiNS2_8IdStringEEES5_EvT_S7_RSaIT0_E.exit.i: ; preds = %_ZSt8_DestroyIPSt5tupleIJN5Yosys5RTLIL6SigBitEiNS2_8IdStringEEES5_EvT_S7_RSaIT0_E.exitthread-pre-split.i, %1
  %22 = phi ptr [ %.pr.i, %_ZSt8_DestroyIPSt5tupleIJN5Yosys5RTLIL6SigBitEiNS2_8IdStringEEES5_EvT_S7_RSaIT0_E.exitthread-pre-split.i ], [ %3, %1 ]
  %.not.i.i.i = icmp eq ptr %22, null
  br i1 %.not.i.i.i, label %_ZNSt6vectorISt5tupleIJN5Yosys5RTLIL6SigBitEiNS2_8IdStringEEESaIS5_EED2Ev.exit, label %23

23:                                               ; preds = %_ZSt8_DestroyIPSt5tupleIJN5Yosys5RTLIL6SigBitEiNS2_8IdStringEEES5_EvT_S7_RSaIT0_E.exit.i
  %24 = getelementptr inbounds nuw i8, ptr %0, i64 32
  %25 = load ptr, ptr %24, align 8, !tbaa !350
  %26 = ptrtoint ptr %25 to i64
  %27 = ptrtoint ptr %22 to i64
  %28 = sub i64 %26, %27
  tail call void @_ZdlPvm(ptr noundef nonnull %22, i64 noundef %28) #25
  br label %_ZNSt6vectorISt5tupleIJN5Yosys5RTLIL6SigBitEiNS2_8IdStringEEESaIS5_EED2Ev.exit

_ZNSt6vectorISt5tupleIJN5Yosys5RTLIL6SigBitEiNS2_8IdStringEEESaIS5_EED2Ev.exit: ; preds = %_ZSt8_DestroyIPSt5tupleIJN5Yosys5RTLIL6SigBitEiNS2_8IdStringEEES5_EvT_S7_RSaIT0_E.exit.i, %23
  %29 = getelementptr inbounds nuw i8, ptr %0, i64 12
  %30 = load i32, ptr %29, align 4, !tbaa !102
  %31 = load i8, ptr @_ZN5Yosys5RTLIL8IdString17destruct_guard_okE, align 1, !tbaa !103, !range !104, !noundef !105
  %32 = trunc nuw i8 %31 to i1
  %33 = icmp ne i32 %30, 0
  %or.cond.i.i = and i1 %33, %32
  br i1 %or.cond.i.i, label %34, label %_ZN5Yosys5RTLIL8IdStringD2Ev.exit

34:                                               ; preds = %_ZNSt6vectorISt5tupleIJN5Yosys5RTLIL6SigBitEiNS2_8IdStringEEESaIS5_EED2Ev.exit
  %35 = sext i32 %30 to i64
  %36 = load ptr, ptr @_ZN5Yosys5RTLIL8IdString24global_refcount_storage_E, align 8, !tbaa !79
  %37 = getelementptr inbounds nuw i32, ptr %36, i64 %35
  %38 = load i32, ptr %37, align 4, !tbaa !78
  %39 = add nsw i32 %38, -1
  store i32 %39, ptr %37, align 4, !tbaa !78
  %40 = icmp sgt i32 %38, 1
  br i1 %40, label %_ZN5Yosys5RTLIL8IdStringD2Ev.exit, label %41

41:                                               ; preds = %34
  invoke void @_ZN5Yosys5RTLIL8IdString14free_referenceEi(i32 noundef %30)
          to label %._ZN5Yosys5RTLIL8IdStringD2Ev.exit_crit_edge unwind label %42

._ZN5Yosys5RTLIL8IdStringD2Ev.exit_crit_edge:     ; preds = %41
  %.pre = load i8, ptr @_ZN5Yosys5RTLIL8IdString17destruct_guard_okE, align 1, !tbaa !103, !range !104
  br label %_ZN5Yosys5RTLIL8IdStringD2Ev.exit

42:                                               ; preds = %41
  %43 = landingpad { ptr, i32 }
          catch ptr null
  %44 = extractvalue { ptr, i32 } %43, 0
  tail call void @__clang_call_terminate(ptr %44) #28
  unreachable

_ZN5Yosys5RTLIL8IdStringD2Ev.exit:                ; preds = %._ZN5Yosys5RTLIL8IdStringD2Ev.exit_crit_edge, %_ZNSt6vectorISt5tupleIJN5Yosys5RTLIL6SigBitEiNS2_8IdStringEEESaIS5_EED2Ev.exit, %34
  %45 = phi i8 [ %.pre, %._ZN5Yosys5RTLIL8IdStringD2Ev.exit_crit_edge ], [ %31, %_ZNSt6vectorISt5tupleIJN5Yosys5RTLIL6SigBitEiNS2_8IdStringEEESaIS5_EED2Ev.exit ], [ 1, %34 ]
  %46 = getelementptr inbounds nuw i8, ptr %0, i64 8
  %47 = load i32, ptr %46, align 8, !tbaa !102
  %48 = trunc nuw i8 %45 to i1
  %49 = icmp ne i32 %47, 0
  %or.cond.i.i1 = and i1 %49, %48
  br i1 %or.cond.i.i1, label %50, label %_ZN5Yosys5RTLIL8IdStringD2Ev.exit2

50:                                               ; preds = %_ZN5Yosys5RTLIL8IdStringD2Ev.exit
  %51 = sext i32 %47 to i64
  %52 = load ptr, ptr @_ZN5Yosys5RTLIL8IdString24global_refcount_storage_E, align 8, !tbaa !79
  %53 = getelementptr inbounds nuw i32, ptr %52, i64 %51
  %54 = load i32, ptr %53, align 4, !tbaa !78
  %55 = add nsw i32 %54, -1
  store i32 %55, ptr %53, align 4, !tbaa !78
  %56 = icmp sgt i32 %54, 1
  br i1 %56, label %_ZN5Yosys5RTLIL8IdStringD2Ev.exit2, label %57

57:                                               ; preds = %50
  invoke void @_ZN5Yosys5RTLIL8IdString14free_referenceEi(i32 noundef %47)
          to label %_ZN5Yosys5RTLIL8IdStringD2Ev.exit2 unwind label %58

58:                                               ; preds = %57
  %59 = landingpad { ptr, i32 }
          catch ptr null
  %60 = extractvalue { ptr, i32 } %59, 0
  tail call void @__clang_call_terminate(ptr %60) #28
  unreachable

_ZN5Yosys5RTLIL8IdStringD2Ev.exit2:               ; preds = %_ZN5Yosys5RTLIL8IdStringD2Ev.exit, %50, %57
  ret void
}